; ModuleID = '58/692.c'
source_filename = "58/692.c"
target datalayout = "e-m:e-p270:32:32-p271:32:32-p272:64:64-i64:64-f80:128-n8:16:32:64-S128"
target triple = "x86_64-pc-linux-gnu"

@.str = private unnamed_addr constant [3 x i8] c"0\0A\00", align 1
@.str.1 = private unnamed_addr constant [3 x i8] c"1\0A\00", align 1

; Function Attrs: noinline nounwind uwtable
define dso_local void @main() #0 {
  %1 = alloca [10000 x [81 x i8]], align 16
  %2 = alloca [10 x i8], align 1
  %3 = alloca i32, align 4
  %4 = alloca i32, align 4
  %5 = alloca i32, align 4
  %6 = getelementptr inbounds [10 x i8], [10 x i8]* %2, i64 0, i64 0
  %7 = call i32 (i8*, ...) bitcast (i32 (...)* @gets to i32 (i8*, ...)*)(i8* %6)
  %8 = getelementptr inbounds [10 x i8], [10 x i8]* %2, i64 0, i64 0
  %9 = call i32 @atoi(i8* %8) #3
  store i32 %9, i32* %3, align 4
  store i32 0, i32* %4, align 4
  br label %10

10:                                               ; preds = %163, %0
  %11 = load i32, i32* %4, align 4
  %12 = load i32, i32* %3, align 4
  %13 = icmp slt i32 %11, %12
  br i1 %13, label %14, label %166

14:                                               ; preds = %10
  %15 = load i32, i32* %4, align 4
  %16 = sext i32 %15 to i64
  %17 = getelementptr inbounds [10000 x [81 x i8]], [10000 x [81 x i8]]* %1, i64 0, i64 %16
  %18 = getelementptr inbounds [81 x i8], [81 x i8]* %17, i64 0, i64 0
  %19 = call i32 (i8*, ...) bitcast (i32 (...)* @gets to i32 (i8*, ...)*)(i8* %18)
  %20 = load i32, i32* %4, align 4
  %21 = sext i32 %20 to i64
  %22 = getelementptr inbounds [10000 x [81 x i8]], [10000 x [81 x i8]]* %1, i64 0, i64 %21
  %23 = getelementptr inbounds [81 x i8], [81 x i8]* %22, i64 0, i64 0
  %24 = load i8, i8* %23, align 1
  %25 = sext i8 %24 to i32
  %26 = icmp slt i32 %25, 65
  br i1 %26, label %51, label %27

27:                                               ; preds = %14
  %28 = load i32, i32* %4, align 4
  %29 = sext i32 %28 to i64
  %30 = getelementptr inbounds [10000 x [81 x i8]], [10000 x [81 x i8]]* %1, i64 0, i64 %29
  %31 = getelementptr inbounds [81 x i8], [81 x i8]* %30, i64 0, i64 0
  %32 = load i8, i8* %31, align 1
  %33 = sext i8 %32 to i32
  %34 = icmp sgt i32 %33, 90
  br i1 %34, label %35, label %43

35:                                               ; preds = %27
  %36 = load i32, i32* %4, align 4
  %37 = sext i32 %36 to i64
  %38 = getelementptr inbounds [10000 x [81 x i8]], [10000 x [81 x i8]]* %1, i64 0, i64 %37
  %39 = getelementptr inbounds [81 x i8], [81 x i8]* %38, i64 0, i64 0
  %40 = load i8, i8* %39, align 1
  %41 = sext i8 %40 to i32
  %42 = icmp slt i32 %41, 97
  br i1 %42, label %51, label %43

43:                                               ; preds = %35, %27
  %44 = load i32, i32* %4, align 4
  %45 = sext i32 %44 to i64
  %46 = getelementptr inbounds [10000 x [81 x i8]], [10000 x [81 x i8]]* %1, i64 0, i64 %45
  %47 = getelementptr inbounds [81 x i8], [81 x i8]* %46, i64 0, i64 0
  %48 = load i8, i8* %47, align 1
  %49 = sext i8 %48 to i32
  %50 = icmp sgt i32 %49, 122
  br i1 %50, label %51, label %61

51:                                               ; preds = %43, %35, %14
  %52 = load i32, i32* %4, align 4
  %53 = sext i32 %52 to i64
  %54 = getelementptr inbounds [10000 x [81 x i8]], [10000 x [81 x i8]]* %1, i64 0, i64 %53
  %55 = getelementptr inbounds [81 x i8], [81 x i8]* %54, i64 0, i64 0
  %56 = load i8, i8* %55, align 1
  %57 = sext i8 %56 to i32
  %58 = icmp ne i32 %57, 95
  br i1 %58, label %59, label %61

59:                                               ; preds = %51
  %60 = call i32 (i8*, ...) @printf(i8* getelementptr inbounds ([3 x i8], [3 x i8]* @.str, i64 0, i64 0))
  br label %162

61:                                               ; preds = %51, %43
  store i32 0, i32* %5, align 4
  br label %62

62:                                               ; preds = %158, %61
  %63 = load i32, i32* %4, align 4
  %64 = sext i32 %63 to i64
  %65 = getelementptr inbounds [10000 x [81 x i8]], [10000 x [81 x i8]]* %1, i64 0, i64 %64
  %66 = load i32, i32* %5, align 4
  %67 = sext i32 %66 to i64
  %68 = getelementptr inbounds [81 x i8], [81 x i8]* %65, i64 0, i64 %67
  %69 = load i8, i8* %68, align 1
  %70 = sext i8 %69 to i32
  %71 = icmp ne i32 %70, 0
  br i1 %71, label %72, label %161

72:                                               ; preds = %62
  %73 = load i32, i32* %4, align 4
  %74 = sext i32 %73 to i64
  %75 = getelementptr inbounds [10000 x [81 x i8]], [10000 x [81 x i8]]* %1, i64 0, i64 %74
  %76 = load i32, i32* %5, align 4
  %77 = sext i32 %76 to i64
  %78 = getelementptr inbounds [81 x i8], [81 x i8]* %75, i64 0, i64 %77
  %79 = load i8, i8* %78, align 1
  %80 = sext i8 %79 to i32
  %81 = icmp slt i32 %80, 65
  br i1 %81, label %112, label %82

82:                                               ; preds = %72
  %83 = load i32, i32* %4, align 4
  %84 = sext i32 %83 to i64
  %85 = getelementptr inbounds [10000 x [81 x i8]], [10000 x [81 x i8]]* %1, i64 0, i64 %84
  %86 = load i32, i32* %5, align 4
  %87 = sext i32 %86 to i64
  %88 = getelementptr inbounds [81 x i8], [81 x i8]* %85, i64 0, i64 %87
  %89 = load i8, i8* %88, align 1
  %90 = sext i8 %89 to i32
  %91 = icmp sgt i32 %90, 90
  br i1 %91, label %92, label %102

92:                                               ; preds = %82
  %93 = load i32, i32* %4, align 4
  %94 = sext i32 %93 to i64
  %95 = getelementptr inbounds [10000 x [81 x i8]], [10000 x [81 x i8]]* %1, i64 0, i64 %94
  %96 = load i32, i32* %5, align 4
  %97 = sext i32 %96 to i64
  %98 = getelementptr inbounds [81 x i8], [81 x i8]* %95, i64 0, i64 %97
  %99 = load i8, i8* %98, align 1
  %100 = sext i8 %99 to i32
  %101 = icmp slt i32 %100, 97
  br i1 %101, label %112, label %102

102:                                              ; preds = %92, %82
  %103 = load i32, i32* %4, align 4
  %104 = sext i32 %103 to i64
  %105 = getelementptr inbounds [10000 x [81 x i8]], [10000 x [81 x i8]]* %1, i64 0, i64 %104
  %106 = load i32, i32* %5, align 4
  %107 = sext i32 %106 to i64
  %108 = getelementptr inbounds [81 x i8], [81 x i8]* %105, i64 0, i64 %107
  %109 = load i8, i8* %108, align 1
  %110 = sext i8 %109 to i32
  %111 = icmp sgt i32 %110, 122
  br i1 %111, label %112, label %144

112:                                              ; preds = %102, %92, %72
  %113 = load i32, i32* %4, align 4
  %114 = sext i32 %113 to i64
  %115 = getelementptr inbounds [10000 x [81 x i8]], [10000 x [81 x i8]]* %1, i64 0, i64 %114
  %116 = load i32, i32* %5, align 4
  %117 = sext i32 %116 to i64
  %118 = getelementptr inbounds [81 x i8], [81 x i8]* %115, i64 0, i64 %117
  %119 = load i8, i8* %118, align 1
  %120 = sext i8 %119 to i32
  %121 = icmp ne i32 %120, 95
  br i1 %121, label %122, label %144

122:                                              ; preds = %112
  %123 = load i32, i32* %4, align 4
  %124 = sext i32 %123 to i64
  %125 = getelementptr inbounds [10000 x [81 x i8]], [10000 x [81 x i8]]* %1, i64 0, i64 %124
  %126 = load i32, i32* %5, align 4
  %127 = sext i32 %126 to i64
  %128 = getelementptr inbounds [81 x i8], [81 x i8]* %125, i64 0, i64 %127
  %129 = load i8, i8* %128, align 1
  %130 = sext i8 %129 to i32
  %131 = icmp sgt i32 %130, 57
  br i1 %131, label %142, label %132

132:                                              ; preds = %122
  %133 = load i32, i32* %4, align 4
  %134 = sext i32 %133 to i64
  %135 = getelementptr inbounds [10000 x [81 x i8]], [10000 x [81 x i8]]* %1, i64 0, i64 %134
  %136 = load i32, i32* %5, align 4
  %137 = sext i32 %136 to i64
  %138 = getelementptr inbounds [81 x i8], [81 x i8]* %135, i64 0, i64 %137
  %139 = load i8, i8* %138, align 1
  %140 = sext i8 %139 to i32
  %141 = icmp slt i32 %140, 48
  br i1 %141, label %142, label %144

142:                                              ; preds = %132, %122
  %143 = call i32 (i8*, ...) @printf(i8* getelementptr inbounds ([3 x i8], [3 x i8]* @.str, i64 0, i64 0))
  br label %161

144:                                              ; preds = %132, %112, %102
  %145 = load i32, i32* %4, align 4
  %146 = sext i32 %145 to i64
  %147 = getelementptr inbounds [10000 x [81 x i8]], [10000 x [81 x i8]]* %1, i64 0, i64 %146
  %148 = load i32, i32* %5, align 4
  %149 = add nsw i32 %148, 1
  %150 = sext i32 %149 to i64
  %151 = getelementptr inbounds [81 x i8], [81 x i8]* %147, i64 0, i64 %150
  %152 = load i8, i8* %151, align 1
  %153 = sext i8 %152 to i32
  %154 = icmp eq i32 %153, 0
  br i1 %154, label %155, label %157

155:                                              ; preds = %144
  %156 = call i32 (i8*, ...) @printf(i8* getelementptr inbounds ([3 x i8], [3 x i8]* @.str.1, i64 0, i64 0))
  br label %161

157:                                              ; preds = %144
  br label %158

158:                                              ; preds = %157
  %159 = load i32, i32* %5, align 4
  %160 = add nsw i32 %159, 1
  store i32 %160, i32* %5, align 4
  br label %62

161:                                              ; preds = %155, %142, %62
  br label %162

162:                                              ; preds = %161, %59
  br label %163

163:                                              ; preds = %162
  %164 = load i32, i32* %4, align 4
  %165 = add nsw i32 %164, 1
  store i32 %165, i32* %4, align 4
  br label %10

166:                                              ; preds = %10
  ret void
}

declare dso_local i32 @gets(...) #1

; Function Attrs: nounwind readonly
declare dso_local i32 @atoi(i8*) #2

declare dso_local i32 @printf(i8*, ...) #1


!llvm.module.flags = !{!0}
!llvm.ident = !{!1}

!0 = !{i32 1, !"wchar_size", i32 4}
!1 = !{!"clang version 10.0.0-4ubuntu1 "}
